(dp1
S'allCals'
p2
(lp3
(dp4
Vkind
p5
Vcalendar#calendarListEntry
p6
sVforegroundColor
p7
V#000000
p8
sVdefaultReminders
p9
(lp10
(dp11
Vminutes
p12
I60
sVmethod
p13
Vpopup
p14
sa(dp15
Vminutes
p16
I30
sVmethod
p17
Vpopup
p18
sasVprimary
p19
I01
sVcolorId
p20
V17
p21
sVselected
p22
I01
sVnotificationSettings
p23
(dp24
Vnotifications
p25
(lp26
(dp27
Vtype
p28
VeventCreation
p29
sVmethod
p30
Vemail
p31
sa(dp32
Vtype
p33
VeventChange
p34
sVmethod
p35
Vemail
p36
sa(dp37
Vtype
p38
VeventCancellation
p39
sVmethod
p40
Vemail
p41
sa(dp42
Vtype
p43
VeventResponse
p44
sVmethod
p45
Vemail
p46
sassVsummary
p47
Vpaul.salminen@gmail.com
p48
sVconferenceProperties
p49
(dp50
VallowedConferenceSolutionTypes
p51
(lp52
VeventHangout
p53
assVetag
p54
V"1519742993998000"
p55
sVbackgroundColor
p56
V#9a9cff
p57
sVtimeZone
p58
VAmerica/Denver
p59
sVaccessRole
p60
Vowner
p61
sVid
p62
Vpaul.salminen@gmail.com
p63
sa(dp64
Vkind
p65
Vcalendar#calendarListEntry
p66
sVforegroundColor
p67
V#000000
p68
sVdefaultReminders
p69
(lp70
sVcolorId
p71
V17
p72
sVselected
p73
I01
sVconferenceProperties
p74
(dp75
VallowedConferenceSolutionTypes
p76
(lp77
VeventHangout
p78
assVsummary
p79
VContacts
p80
sVetag
p81
V"1519742836112000"
p82
sVbackgroundColor
p83
V#9a9cff
p84
sVsummaryOverride
p85
VContacts
p86
sVtimeZone
p87
VAmerica/Denver
p88
sVaccessRole
p89
Vreader
p90
sVid
p91
V#contacts@group.v.calendar.google.com
p92
sa(dp93
Vkind
p94
Vcalendar#calendarListEntry
p95
sVforegroundColor
p96
V#000000
p97
sVdefaultReminders
p98
(lp99
sVcolorId
p100
V7
sVselected
p101
I01
sVconferenceProperties
p102
(dp103
VallowedConferenceSolutionTypes
p104
(lp105
VeventHangout
p106
assVsummary
p107
VHolidays in United States
p108
sVetag
p109
V"1519742836436000"
p110
sVbackgroundColor
p111
V#42d692
p112
sVsummaryOverride
p113
VHolidays in United States
p114
sVtimeZone
p115
VAmerica/Denver
p116
sVaccessRole
p117
Vreader
p118
sVid
p119
Ven.usa#holiday@group.v.calendar.google.com
p120
sas.