(dp1
S'allCals'
p2
(lp3
(dp4
Vkind
p5
Vcalendar#calendarListEntry
p6
sVforegroundColor
p7
V#000000
p8
sVdefaultReminders
p9
(lp10
(dp11
Vminutes
p12
I30
sVmethod
p13
Vpopup
p14
sa(dp15
Vminutes
p16
I10
sVmethod
p17
Vemail
p18
sasVprimary
p19
I01
sVcolorId
p20
V2
sVselected
p21
I01
sVnotificationSettings
p22
(dp23
Vnotifications
p24
(lp25
(dp26
Vtype
p27
VeventCreation
p28
sVmethod
p29
Vemail
p30
sa(dp31
Vtype
p32
VeventChange
p33
sVmethod
p34
Vemail
p35
sa(dp36
Vtype
p37
VeventCancellation
p38
sVmethod
p39
Vemail
p40
sa(dp41
Vtype
p42
VeventResponse
p43
sVmethod
p44
Vemail
p45
sassVsummary
p46
Vliquidlip@gmail.com
p47
sVconferenceProperties
p48
(dp49
VallowedConferenceSolutionTypes
p50
(lp51
VeventHangout
p52
assVetag
p53
V"0"
p54
sVbackgroundColor
p55
V#d06b64
p56
sVtimeZone
p57
VAmerica/Denver
p58
sVaccessRole
p59
Vowner
p60
sVid
p61
Vliquidlip@gmail.com
p62
sa(dp63
Vkind
p64
Vcalendar#calendarListEntry
p65
sVforegroundColor
p66
V#000000
p67
sVdefaultReminders
p68
(lp69
sVcolorId
p70
V17
p71
sVselected
p72
I01
sVconferenceProperties
p73
(dp74
VallowedConferenceSolutionTypes
p75
(lp76
VeventHangout
p77
assVsummary
p78
VContacts
p79
sVetag
p80
V"1436460629261000"
p81
sVbackgroundColor
p82
V#9a9cff
p83
sVtimeZone
p84
VAmerica/Denver
p85
sVaccessRole
p86
Vreader
p87
sVid
p88
V#contacts@group.v.calendar.google.com
p89
sa(dp90
Vkind
p91
Vcalendar#calendarListEntry
p92
sVforegroundColor
p93
V#000000
p94
sVdefaultReminders
p95
(lp96
sVcolorId
p97
V7
sVselected
p98
I01
sVconferenceProperties
p99
(dp100
VallowedConferenceSolutionTypes
p101
(lp102
VeventHangout
p103
assVsummary
p104
VHolidays in United States
p105
sVetag
p106
V"1436460613404000"
p107
sVbackgroundColor
p108
V#42d692
p109
sVtimeZone
p110
VAmerica/Denver
p111
sVaccessRole
p112
Vreader
p113
sVid
p114
Ven.usa#holiday@group.v.calendar.google.com
p115
sas.