(dp1
S'allCals'
p2
(lp3
(dp4
Vkind
p5
Vcalendar#calendarListEntry
p6
sVforegroundColor
p7
V#000000
p8
sVdefaultReminders
p9
(lp10
(dp11
Vminutes
p12
I30
sVmethod
p13
Vemail
p14
sa(dp15
Vminutes
p16
I30
sVmethod
p17
Vpopup
p18
sasVprimary
p19
I01
sVcolorId
p20
V17
p21
sVselected
p22
I01
sVnotificationSettings
p23
(dp24
Vnotifications
p25
(lp26
(dp27
Vtype
p28
VeventCreation
p29
sVmethod
p30
Vemail
p31
sa(dp32
Vtype
p33
VeventChange
p34
sVmethod
p35
Vemail
p36
sa(dp37
Vtype
p38
VeventCancellation
p39
sVmethod
p40
Vemail
p41
sa(dp42
Vtype
p43
VeventResponse
p44
sVmethod
p45
Vemail
p46
sassVsummary
p47
Vpaul.salminen@gmail.com
p48
sVconferenceProperties
p49
(dp50
VallowedConferenceSolutionTypes
p51
(lp52
VeventHangout
p53
assVetag
p54
V"0"
p55
sVbackgroundColor
p56
V#9a9cff
p57
sVtimeZone
p58
VAmerica/Denver
p59
sVaccessRole
p60
Vowner
p61
sVid
p62
Vpaul.salminen@gmail.com
p63
sa(dp64
Vkind
p65
Vcalendar#calendarListEntry
p66
sVforegroundColor
p67
V#000000
p68
sVdefaultReminders
p69
(lp70
sVcolorId
p71
V17
p72
sVselected
p73
I01
sVconferenceProperties
p74
(dp75
VallowedConferenceSolutionTypes
p76
(lp77
VeventHangout
p78
assVsummary
p79
VContacts
p80
sVetag
p81
V"1518916995336000"
p82
sVbackgroundColor
p83
V#9a9cff
p84
sVtimeZone
p85
VAmerica/Denver
p86
sVaccessRole
p87
Vreader
p88
sVid
p89
V#contacts@group.v.calendar.google.com
p90
sa(dp91
Vkind
p92
Vcalendar#calendarListEntry
p93
sVforegroundColor
p94
V#000000
p95
sVdefaultReminders
p96
(lp97
sVcolorId
p98
V17
p99
sVselected
p100
I01
sVconferenceProperties
p101
(dp102
VallowedConferenceSolutionTypes
p103
(lp104
VeventHangout
p105
assVsummary
p106
VHolidays in United States
p107
sVetag
p108
V"1462321747521000"
p109
sVbackgroundColor
p110
V#9a9cff
p111
sVtimeZone
p112
VAmerica/Denver
p113
sVaccessRole
p114
Vreader
p115
sVid
p116
Ven.usa#holiday@group.v.calendar.google.com
p117
sas.